; Function Attrs: nounwind uwtable
define dso_local noundef ptr @ossl_asn1_time_from_tm(ptr noundef %0, ptr noundef readonly captures(none) %1, i32 noundef %2) local_unnamed_addr #1 {
  switch i32 %2, label %54 [
    i32 -1, label %4
    i32 23, label %8
    i32 24, label %12
  ]

4:                                                ; preds = %3
  %5 = getelementptr inbounds nuw i8, ptr %1, i64 20
  %6 = load i32, ptr %5, align 4, !tbaa !17
  %7 = add i32 %6, -150
  %or.cond.i = icmp ult i32 %7, -100
  %.45 = select i1 %or.cond.i, i32 24, i32 23
  br label %12

8:                                                ; preds = %3
  %9 = getelementptr inbounds nuw i8, ptr %1, i64 20
  %10 = load i32, ptr %9, align 4, !tbaa !17
  %11 = add i32 %10, -150
  %or.cond.i46 = icmp ult i32 %11, -100
  br i1 %or.cond.i46, label %54, label %12

12:                                               ; preds = %3, %4, %8
  %13 = phi i1 [ false, %8 ], [ %or.cond.i, %4 ], [ true, %3 ]
  %.036 = phi i32 [ 23, %8 ], [ %.45, %4 ], [ %2, %3 ]
  %14 = icmp eq ptr %0, null
  br i1 %14, label %15, label %.thread

15:                                               ; preds = %12
  %16 = tail call ptr @ASN1_STRING_new() #8
  %17 = icmp eq ptr %16, null
  br i1 %17, label %56, label %.thread

.thread:                                          ; preds = %12, %15
  %.149 = phi ptr [ %16, %15 ], [ %0, %12 ]
  %18 = tail call i32 @ASN1_STRING_set(ptr noundef nonnull %.149, ptr noundef null, i32 noundef 20) #8
  %.not43 = icmp eq i32 %18, 0
  br i1 %.not43, label %54, label %19

19:                                               ; preds = %.thread
  %20 = getelementptr inbounds nuw i8, ptr %.149, i64 4
  store i32 %.036, ptr %20, align 4, !tbaa !4
  %21 = getelementptr inbounds nuw i8, ptr %.149, i64 8
  %22 = load ptr, ptr %21, align 8, !tbaa !14
  %23 = getelementptr inbounds nuw i8, ptr %1, i64 16
  %24 = load i32, ptr %23, align 8, !tbaa !19
  %25 = icmp eq i32 %24, 2147483647
  br i1 %25, label %54, label %26

26:                                               ; preds = %19
  %27 = getelementptr inbounds nuw i8, ptr %1, i64 20
  %28 = load i32, ptr %27, align 4, !tbaa !17
  br i1 %13, label %29, label %42

29:                                               ; preds = %26
  %30 = icmp sgt i32 %28, 2147481747
  br i1 %30, label %54, label %31

31:                                               ; preds = %29
  %32 = add nsw i32 %28, 1900
  %33 = add nsw i32 %24, 1
  %34 = getelementptr inbounds nuw i8, ptr %1, i64 12
  %35 = load i32, ptr %34, align 4, !tbaa !20
  %36 = getelementptr inbounds nuw i8, ptr %1, i64 8
  %37 = load i32, ptr %36, align 8, !tbaa !23
  %38 = getelementptr inbounds nuw i8, ptr %1, i64 4
  %39 = load i32, ptr %38, align 4, !tbaa !24
  %40 = load i32, ptr %1, align 8, !tbaa !25
  %41 = tail call i32 (ptr, i64, ptr, ...) @BIO_snprintf(ptr noundef %22, i64 noundef 20, ptr noundef nonnull @.str.1, i32 noundef %32, i32 noundef %33, i32 noundef %35, i32 noundef %37, i32 noundef %39, i32 noundef %40) #8
  br label %53

42:                                               ; preds = %26
  %43 = srem i32 %28, 100
  %44 = add nsw i32 %24, 1
  %45 = getelementptr inbounds nuw i8, ptr %1, i64 12
  %46 = load i32, ptr %45, align 4, !tbaa !20
  %47 = getelementptr inbounds nuw i8, ptr %1, i64 8
  %48 = load i32, ptr %47, align 8, !tbaa !23
  %49 = getelementptr inbounds nuw i8, ptr %1, i64 4
  %50 = load i32, ptr %49, align 4, !tbaa !24
  %51 = load i32, ptr %1, align 8, !tbaa !25
  %52 = tail call i32 (ptr, i64, ptr, ...) @BIO_snprintf(ptr noundef %22, i64 noundef 20, ptr noundef nonnull @.str.2, i32 noundef %43, i32 noundef %44, i32 noundef %46, i32 noundef %48, i32 noundef %50, i32 noundef %51) #8
  br label %53

53:                                               ; preds = %42, %31
  %storemerge = phi i32 [ %52, %42 ], [ %41, %31 ]
  store i32 %storemerge, ptr %.149, align 8, !tbaa !13
  br label %56

54:                                               ; preds = %3, %29, %19, %.thread, %8
  %.035 = phi ptr [ %.149, %19 ], [ %.149, %29 ], [ %.149, %.thread ], [ null, %8 ], [ null, %3 ]
  %.not44 = icmp eq ptr %.035, %0
  br i1 %.not44, label %56, label %55

55:                                               ; preds = %54
  tail call void @ASN1_STRING_free(ptr noundef %.035) #8
  br label %56

56:                                               ; preds = %54, %55, %15, %53
  %.0 = phi ptr [ %.149, %53 ], [ null, %15 ], [ null, %55 ], [ null, %54 ]
  ret ptr %.0
}